target datalayout = "e-m:e-p270:32:32-p271:32:32-p272:64:64-i64:64-i128:128-f80:128-n8:16:32:64-S128"
target triple = "x86_64-pc-linux-gnu"

%struct.uv__queue = type { ptr, ptr }
%union.pthread_mutex_t = type { %struct.__pthread_mutex_s }
%struct.__pthread_mutex_s = type { i32, i32, i32, i32, i32, i16, i16, %struct.__pthread_internal_list }
%struct.__pthread_internal_list = type { ptr, ptr }
%union.pthread_cond_t = type { %struct.__pthread_cond_s }
%struct.__pthread_cond_s = type { %union.__atomic_wide_counter, %union.__atomic_wide_counter, [2 x i32], [2 x i32], i32, i32, [2 x i32] }
%union.__atomic_wide_counter = type { i64 }
%struct.uv__work = type { ptr, ptr, ptr, %struct.uv__queue }
%struct.uv_loop_s = type { ptr, i32, %struct.uv__queue, %union.anon, ptr, i32, i64, i32, %struct.uv__queue, %struct.uv__queue, ptr, i32, i32, %struct.uv__queue, %union.pthread_mutex_t, %struct.uv_async_s, %union.pthread_rwlock_t, ptr, %struct.uv__queue, %struct.uv__queue, %struct.uv__queue, %struct.uv__queue, %struct.uv__queue, ptr, %struct.uv__io_s, i32, %struct.anon.1, i64, i64, [2 x i32], %struct.uv__io_s, %struct.uv_signal_s, i32, %struct.uv__io_s, ptr, i32 }
%union.anon = type { ptr }
%struct.uv_async_s = type { ptr, ptr, i32, ptr, %struct.uv__queue, %union.anon.0, ptr, i32, ptr, %struct.uv__queue, i32 }
%union.anon.0 = type { [4 x ptr] }
%union.pthread_rwlock_t = type { %struct.__pthread_rwlock_arch_t }
%struct.__pthread_rwlock_arch_t = type { i32, i32, i32, i32, i32, i32, i32, i32, i8, [7 x i8], i64, i32 }
%struct.anon.1 = type { ptr, i32 }
%struct.uv_signal_s = type { ptr, ptr, i32, ptr, %struct.uv__queue, %union.anon.2, ptr, i32, ptr, i32, %struct.anon.3, i32, i32 }
%union.anon.2 = type { [4 x ptr] }
%struct.anon.3 = type { ptr, ptr, ptr, i32 }
%struct.uv__io_s = type { ptr, %struct.uv__queue, %struct.uv__queue, i32, i32, i32 }

@nthreads = internal global i32 0, align 4
@exit_message = internal global %struct.uv__queue zeroinitializer, align 8
@mutex = internal global %union.pthread_mutex_t zeroinitializer, align 8
@cond = internal global %union.pthread_cond_t zeroinitializer, align 8
@slow_io_pending_wq = internal global %struct.uv__queue zeroinitializer, align 8
@run_slow_work_message = internal global %struct.uv__queue zeroinitializer, align 8
@wq = internal global %struct.uv__queue zeroinitializer, align 8
@idle_threads = internal global i32 0, align 4
@.str.1 = private unnamed_addr constant [13 x i8] c"libuv-worker\00", align 1
@slow_io_work_running = internal global i32 0, align 4

; Function Attrs: inlinehint nounwind uwtable
define internal void @uv__queue_insert_tail(ptr noundef %0, ptr noundef %1) #4 {
  %3 = alloca ptr, align 8
  %4 = alloca ptr, align 8
  store ptr %0, ptr %3, align 8
  store ptr %1, ptr %4, align 8
  %5 = load ptr, ptr %3, align 8
  %6 = load ptr, ptr %4, align 8
  %7 = getelementptr inbounds nuw %struct.uv__queue, ptr %6, i32 0, i32 0
  store ptr %5, ptr %7, align 8
  %8 = load ptr, ptr %3, align 8
  %9 = getelementptr inbounds nuw %struct.uv__queue, ptr %8, i32 0, i32 1
  %10 = load ptr, ptr %9, align 8
  %11 = load ptr, ptr %4, align 8
  %12 = getelementptr inbounds nuw %struct.uv__queue, ptr %11, i32 0, i32 1
  store ptr %10, ptr %12, align 8
  %13 = load ptr, ptr %4, align 8
  %14 = load ptr, ptr %4, align 8
  %15 = getelementptr inbounds nuw %struct.uv__queue, ptr %14, i32 0, i32 1
  %16 = load ptr, ptr %15, align 8
  %17 = getelementptr inbounds nuw %struct.uv__queue, ptr %16, i32 0, i32 0
  store ptr %13, ptr %17, align 8
  %18 = load ptr, ptr %4, align 8
  %19 = load ptr, ptr %3, align 8
  %20 = getelementptr inbounds nuw %struct.uv__queue, ptr %19, i32 0, i32 1
  store ptr %18, ptr %20, align 8
  ret void
}

; Function Attrs: inlinehint nounwind uwtable
define internal void @uv__queue_init(ptr noundef %0) #4 {
  %2 = alloca ptr, align 8
  store ptr %0, ptr %2, align 8
  %3 = load ptr, ptr %2, align 8
  %4 = load ptr, ptr %2, align 8
  %5 = getelementptr inbounds nuw %struct.uv__queue, ptr %4, i32 0, i32 0
  store ptr %3, ptr %5, align 8
  %6 = load ptr, ptr %2, align 8
  %7 = load ptr, ptr %2, align 8
  %8 = getelementptr inbounds nuw %struct.uv__queue, ptr %7, i32 0, i32 1
  store ptr %6, ptr %8, align 8
  ret void
}

; Function Attrs: inlinehint nounwind uwtable
define internal void @uv__queue_remove(ptr noundef %0) #4 {
  %2 = alloca ptr, align 8
  store ptr %0, ptr %2, align 8
  %3 = load ptr, ptr %2, align 8
  %4 = getelementptr inbounds nuw %struct.uv__queue, ptr %3, i32 0, i32 0
  %5 = load ptr, ptr %4, align 8
  %6 = load ptr, ptr %2, align 8
  %7 = getelementptr inbounds nuw %struct.uv__queue, ptr %6, i32 0, i32 1
  %8 = load ptr, ptr %7, align 8
  %9 = getelementptr inbounds nuw %struct.uv__queue, ptr %8, i32 0, i32 0
  store ptr %5, ptr %9, align 8
  %10 = load ptr, ptr %2, align 8
  %11 = getelementptr inbounds nuw %struct.uv__queue, ptr %10, i32 0, i32 1
  %12 = load ptr, ptr %11, align 8
  %13 = load ptr, ptr %2, align 8
  %14 = getelementptr inbounds nuw %struct.uv__queue, ptr %13, i32 0, i32 0
  %15 = load ptr, ptr %14, align 8
  %16 = getelementptr inbounds nuw %struct.uv__queue, ptr %15, i32 0, i32 1
  store ptr %12, ptr %16, align 8
  ret void
}

; Function Attrs: nounwind uwtable
define internal i32 @slow_work_thread_threshold() #0 {
  %1 = load i32, ptr @nthreads, align 4
  %2 = add i32 %1, 1
  %3 = udiv i32 %2, 2
  ret i32 %3
}

; Function Attrs: inlinehint nounwind uwtable
define internal ptr @uv__queue_next(ptr noundef %0) #4 {
  %2 = alloca ptr, align 8
  store ptr %0, ptr %2, align 8
  %3 = load ptr, ptr %2, align 8
  %4 = getelementptr inbounds nuw %struct.uv__queue, ptr %3, i32 0, i32 0
  %5 = load ptr, ptr %4, align 8
  ret ptr %5
}

; Function Attrs: inlinehint nounwind uwtable
define internal ptr @uv__queue_head(ptr noundef %0) #4 {
  %2 = alloca ptr, align 8
  store ptr %0, ptr %2, align 8
  %3 = load ptr, ptr %2, align 8
  %4 = getelementptr inbounds nuw %struct.uv__queue, ptr %3, i32 0, i32 0
  %5 = load ptr, ptr %4, align 8
  ret ptr %5
}

; Function Attrs: inlinehint nounwind uwtable
define internal i32 @uv__queue_empty(ptr noundef %0) #4 {
  %2 = alloca ptr, align 8
  store ptr %0, ptr %2, align 8
  %3 = load ptr, ptr %2, align 8
  %4 = load ptr, ptr %2, align 8
  %5 = getelementptr inbounds nuw %struct.uv__queue, ptr %4, i32 0, i32 0
  %6 = load ptr, ptr %5, align 8
  %7 = icmp eq ptr %3, %6
  %8 = zext i1 %7 to i32
  ret i32 %8
}

; Function Attrs: nounwind uwtable
define internal void @worker(ptr noundef %0) #0 {
  %2 = alloca ptr, align 8
  %3 = alloca ptr, align 8
  %4 = alloca ptr, align 8
  %5 = alloca i32, align 4
  store ptr %0, ptr %2, align 8
  call void @llvm.lifetime.start.p0(i64 8, ptr %3) #8
  call void @llvm.lifetime.start.p0(i64 8, ptr %4) #8
  call void @llvm.lifetime.start.p0(i64 4, ptr %5) #8
  %6 = call i32 @uv_thread_setname(ptr noundef @.str.1)
  %7 = load ptr, ptr %2, align 8
  call void @uv_sem_post(ptr noundef %7)
  store ptr null, ptr %2, align 8
  call void @uv_mutex_lock(ptr noundef @mutex)
  br label %8

8:                                                ; preds = %98, %50, %45, %1
  br label %9

9:                                                ; preds = %26, %8
  %10 = call i32 @uv__queue_empty(ptr noundef @wq)
  %11 = icmp ne i32 %10, 0
  br i1 %11, label %24, label %12

12:                                               ; preds = %9
  %13 = call ptr @uv__queue_head(ptr noundef @wq)
  %14 = icmp eq ptr %13, @run_slow_work_message
  br i1 %14, label %15, label %22

15:                                               ; preds = %12
  %16 = call ptr @uv__queue_next(ptr noundef @run_slow_work_message)
  %17 = icmp eq ptr %16, @wq
  br i1 %17, label %18, label %22

18:                                               ; preds = %15
  %19 = load i32, ptr @slow_io_work_running, align 4
  %20 = call i32 @slow_work_thread_threshold()
  %21 = icmp uge i32 %19, %20
  br label %22

22:                                               ; preds = %18, %15, %12
  %23 = phi i1 [ false, %15 ], [ false, %12 ], [ %21, %18 ]
  br label %24

24:                                               ; preds = %22, %9
  %25 = phi i1 [ true, %9 ], [ %23, %22 ]
  br i1 %25, label %26, label %31

26:                                               ; preds = %24
  %27 = load i32, ptr @idle_threads, align 4
  %28 = add i32 %27, 1
  store i32 %28, ptr @idle_threads, align 4
  call void @uv_cond_wait(ptr noundef @cond, ptr noundef @mutex)
  %29 = load i32, ptr @idle_threads, align 4
  %30 = sub i32 %29, 1
  store i32 %30, ptr @idle_threads, align 4
  br label %9

31:                                               ; preds = %24
  %32 = call ptr @uv__queue_head(ptr noundef @wq)
  store ptr %32, ptr %4, align 8
  %33 = load ptr, ptr %4, align 8
  %34 = icmp eq ptr %33, @exit_message
  br i1 %34, label %35, label %36

35:                                               ; preds = %31
  call void @uv_cond_signal(ptr noundef @cond)
  call void @uv_mutex_unlock(ptr noundef @mutex)
  br label %99

36:                                               ; preds = %31
  %37 = load ptr, ptr %4, align 8
  call void @uv__queue_remove(ptr noundef %37)
  %38 = load ptr, ptr %4, align 8
  call void @uv__queue_init(ptr noundef %38)
  store i32 0, ptr %5, align 4
  %39 = load ptr, ptr %4, align 8
  %40 = icmp eq ptr %39, @run_slow_work_message
  br i1 %40, label %41, label %65

41:                                               ; preds = %36
  %42 = load i32, ptr @slow_io_work_running, align 4
  %43 = call i32 @slow_work_thread_threshold()
  %44 = icmp uge i32 %42, %43
  br i1 %44, label %45, label %47

45:                                               ; preds = %41
  %46 = load ptr, ptr %4, align 8
  call void @uv__queue_insert_tail(ptr noundef @wq, ptr noundef %46)
  br label %8

47:                                               ; preds = %41
  %48 = call i32 @uv__queue_empty(ptr noundef @slow_io_pending_wq)
  %49 = icmp ne i32 %48, 0
  br i1 %49, label %50, label %51

50:                                               ; preds = %47
  br label %8

51:                                               ; preds = %47
  store i32 1, ptr %5, align 4
  %52 = load i32, ptr @slow_io_work_running, align 4
  %53 = add i32 %52, 1
  store i32 %53, ptr @slow_io_work_running, align 4
  %54 = call ptr @uv__queue_head(ptr noundef @slow_io_pending_wq)
  store ptr %54, ptr %4, align 8
  %55 = load ptr, ptr %4, align 8
  call void @uv__queue_remove(ptr noundef %55)
  %56 = load ptr, ptr %4, align 8
  call void @uv__queue_init(ptr noundef %56)
  %57 = call i32 @uv__queue_empty(ptr noundef @slow_io_pending_wq)
  %58 = icmp ne i32 %57, 0
  br i1 %58, label %64, label %59

59:                                               ; preds = %51
  call void @uv__queue_insert_tail(ptr noundef @wq, ptr noundef @run_slow_work_message)
  %60 = load i32, ptr @idle_threads, align 4
  %61 = icmp ugt i32 %60, 0
  br i1 %61, label %62, label %63

62:                                               ; preds = %59
  call void @uv_cond_signal(ptr noundef @cond)
  br label %63

63:                                               ; preds = %62, %59
  br label %64

64:                                               ; preds = %63, %51
  br label %65

65:                                               ; preds = %64, %36
  call void @uv_mutex_unlock(ptr noundef @mutex)
  %66 = load ptr, ptr %4, align 8
  %67 = getelementptr inbounds i8, ptr %66, i64 -24
  store ptr %67, ptr %3, align 8
  %68 = load ptr, ptr %3, align 8
  %69 = getelementptr inbounds nuw %struct.uv__work, ptr %68, i32 0, i32 0
  %70 = load ptr, ptr %69, align 8
  %71 = load ptr, ptr %3, align 8
  call void %70(ptr noundef %71)
  %72 = load ptr, ptr %3, align 8
  %73 = getelementptr inbounds nuw %struct.uv__work, ptr %72, i32 0, i32 2
  %74 = load ptr, ptr %73, align 8
  %75 = getelementptr inbounds nuw %struct.uv_loop_s, ptr %74, i32 0, i32 14
  call void @uv_mutex_lock(ptr noundef %75)
  %76 = load ptr, ptr %3, align 8
  %77 = getelementptr inbounds nuw %struct.uv__work, ptr %76, i32 0, i32 0
  store ptr null, ptr %77, align 8
  %78 = load ptr, ptr %3, align 8
  %79 = getelementptr inbounds nuw %struct.uv__work, ptr %78, i32 0, i32 2
  %80 = load ptr, ptr %79, align 8
  %81 = getelementptr inbounds nuw %struct.uv_loop_s, ptr %80, i32 0, i32 13
  %82 = load ptr, ptr %3, align 8
  %83 = getelementptr inbounds nuw %struct.uv__work, ptr %82, i32 0, i32 3
  call void @uv__queue_insert_tail(ptr noundef %81, ptr noundef %83)
  %84 = load ptr, ptr %3, align 8
  %85 = getelementptr inbounds nuw %struct.uv__work, ptr %84, i32 0, i32 2
  %86 = load ptr, ptr %85, align 8
  %87 = getelementptr inbounds nuw %struct.uv_loop_s, ptr %86, i32 0, i32 15
  %88 = call i32 @uv_async_send(ptr noundef %87)
  %89 = load ptr, ptr %3, align 8
  %90 = getelementptr inbounds nuw %struct.uv__work, ptr %89, i32 0, i32 2
  %91 = load ptr, ptr %90, align 8
  %92 = getelementptr inbounds nuw %struct.uv_loop_s, ptr %91, i32 0, i32 14
  call void @uv_mutex_unlock(ptr noundef %92)
  call void @uv_mutex_lock(ptr noundef @mutex)
  %93 = load i32, ptr %5, align 4
  %94 = icmp ne i32 %93, 0
  br i1 %94, label %95, label %98

95:                                               ; preds = %65
  %96 = load i32, ptr @slow_io_work_running, align 4
  %97 = add i32 %96, -1
  store i32 %97, ptr @slow_io_work_running, align 4
  br label %98

98:                                               ; preds = %95, %65
  br label %8

99:                                               ; preds = %35
  call void @llvm.lifetime.end.p0(i64 4, ptr %5) #8
  call void @llvm.lifetime.end.p0(i64 8, ptr %4) #8
  call void @llvm.lifetime.end.p0(i64 8, ptr %3) #8
  ret void
}