; Function Attrs: nounwind uwtable
define internal void @worker(ptr noundef %0) #0 {
  %2 = tail call i32 @uv_thread_setname(ptr noundef nonnull @.str.1) #9
  tail call void @uv_sem_post(ptr noundef %0) #9
  tail call void @uv_mutex_lock(ptr noundef nonnull @mutex) #9
  br label %.backedge

.backedge:                                        ; preds = %.backedge.backedge, %1
  %3 = load ptr, ptr @wq, align 8
  %.not = icmp eq ptr %3, @wq
  br i1 %.not, label %.critedge, label %4

4:                                                ; preds = %.backedge
  %5 = icmp eq ptr %3, @run_slow_work_message
  br i1 %5, label %6, label %.critedge2

6:                                                ; preds = %4
  %7 = load ptr, ptr @run_slow_work_message, align 8
  %8 = icmp eq ptr %7, @wq
  br i1 %8, label %9, label %24

9:                                                ; preds = %6
  %10 = load i32, ptr @slow_io_work_running, align 4
  %11 = load i32, ptr @nthreads, align 4
  %12 = add i32 %11, 1
  %13 = lshr i32 %12, 1
  %.not21 = icmp ult i32 %10, %13
  br i1 %.not21, label %24, label %.critedge

.critedge:                                        ; preds = %.backedge, %9
  %14 = load i32, ptr @idle_threads, align 4
  %15 = add i32 %14, 1
  store i32 %15, ptr @idle_threads, align 4
  tail call void @uv_cond_wait(ptr noundef nonnull @cond, ptr noundef nonnull @mutex) #9
  %16 = load i32, ptr @idle_threads, align 4
  %17 = add i32 %16, -1
  store i32 %17, ptr @idle_threads, align 4
  br label %.backedge.backedge

.backedge.backedge:                               ; preds = %.critedge, %48, %64, %32, %34
  br label %.backedge

.critedge2:                                       ; preds = %4
  %18 = icmp eq ptr %3, @exit_message
  br i1 %18, label %19, label %.critedge2.thread

19:                                               ; preds = %.critedge2
  tail call void @uv_cond_signal(ptr noundef nonnull @cond) #9
  tail call void @uv_mutex_unlock(ptr noundef nonnull @mutex) #9
  ret void

.critedge2.thread:                                ; preds = %.critedge2
  %.pre = load ptr, ptr %3, align 8
  %20 = getelementptr inbounds nuw i8, ptr %3, i64 8
  %21 = load ptr, ptr %20, align 8
  store ptr %.pre, ptr %21, align 8
  %22 = load ptr, ptr %20, align 8
  %23 = getelementptr inbounds nuw i8, ptr %.pre, i64 8
  store ptr %22, ptr %23, align 8
  store ptr %3, ptr %3, align 8
  store ptr %3, ptr %20, align 8
  br label %48

24:                                               ; preds = %9, %6
  %25 = load ptr, ptr getelementptr inbounds nuw (i8, ptr @run_slow_work_message, i64 8), align 8
  store ptr %7, ptr %25, align 8
  %26 = load ptr, ptr getelementptr inbounds nuw (i8, ptr @run_slow_work_message, i64 8), align 8
  %27 = getelementptr inbounds nuw i8, ptr %7, i64 8
  store ptr %26, ptr %27, align 8
  store ptr @run_slow_work_message, ptr @run_slow_work_message, align 8
  store ptr @run_slow_work_message, ptr getelementptr inbounds nuw (i8, ptr @run_slow_work_message, i64 8), align 8
  %28 = load i32, ptr @slow_io_work_running, align 4
  %29 = load i32, ptr @nthreads, align 4
  %30 = add i32 %29, 1
  %31 = lshr i32 %30, 1
  %.not22 = icmp ult i32 %28, %31
  br i1 %.not22, label %34, label %32

32:                                               ; preds = %24
  store ptr @wq, ptr @run_slow_work_message, align 8
  %33 = load ptr, ptr getelementptr inbounds nuw (i8, ptr @wq, i64 8), align 8
  store ptr %33, ptr getelementptr inbounds nuw (i8, ptr @run_slow_work_message, i64 8), align 8
  store ptr @run_slow_work_message, ptr %33, align 8
  store ptr @run_slow_work_message, ptr getelementptr inbounds nuw (i8, ptr @wq, i64 8), align 8
  br label %.backedge.backedge

34:                                               ; preds = %24
  %35 = load ptr, ptr @slow_io_pending_wq, align 8
  %.not29 = icmp eq ptr %35, @slow_io_pending_wq
  br i1 %.not29, label %.backedge.backedge, label %36

36:                                               ; preds = %34
  %37 = add nuw nsw i32 %28, 1
  store i32 %37, ptr @slow_io_work_running, align 4
  %38 = load ptr, ptr %35, align 8
  %39 = getelementptr inbounds nuw i8, ptr %35, i64 8
  %40 = load ptr, ptr %39, align 8
  store ptr %38, ptr %40, align 8
  %41 = load ptr, ptr %39, align 8
  %42 = getelementptr inbounds nuw i8, ptr %38, i64 8
  store ptr %41, ptr %42, align 8
  store ptr %35, ptr %35, align 8
  store ptr %35, ptr %39, align 8
  %43 = load ptr, ptr @slow_io_pending_wq, align 8
  %.not30 = icmp eq ptr %43, @slow_io_pending_wq
  br i1 %.not30, label %48, label %44

44:                                               ; preds = %36
  store ptr @wq, ptr @run_slow_work_message, align 8
  %45 = load ptr, ptr getelementptr inbounds nuw (i8, ptr @wq, i64 8), align 8
  store ptr %45, ptr getelementptr inbounds nuw (i8, ptr @run_slow_work_message, i64 8), align 8
  store ptr @run_slow_work_message, ptr %45, align 8
  store ptr @run_slow_work_message, ptr getelementptr inbounds nuw (i8, ptr @wq, i64 8), align 8
  %46 = load i32, ptr @idle_threads, align 4
  %.not25 = icmp eq i32 %46, 0
  br i1 %.not25, label %48, label %47

47:                                               ; preds = %44
  tail call void @uv_cond_signal(ptr noundef nonnull @cond) #9
  br label %48

48:                                               ; preds = %.critedge2.thread, %36, %47, %44
  %.019 = phi ptr [ %35, %36 ], [ %35, %47 ], [ %35, %44 ], [ %3, %.critedge2.thread ]
  tail call void @uv_mutex_unlock(ptr noundef nonnull @mutex) #9
  %49 = getelementptr inbounds i8, ptr %.019, i64 -24
  %50 = load ptr, ptr %49, align 8
  tail call void %50(ptr noundef nonnull %49) #9
  %51 = getelementptr inbounds i8, ptr %.019, i64 -8
  %52 = load ptr, ptr %51, align 8
  %53 = getelementptr inbounds nuw i8, ptr %52, i64 136
  tail call void @uv_mutex_lock(ptr noundef nonnull %53) #9
  store ptr null, ptr %49, align 8
  %54 = load ptr, ptr %51, align 8
  %55 = getelementptr inbounds nuw i8, ptr %54, i64 120
  store ptr %55, ptr %.019, align 8
  %56 = getelementptr inbounds nuw i8, ptr %54, i64 128
  %57 = load ptr, ptr %56, align 8
  %58 = getelementptr inbounds nuw i8, ptr %.019, i64 8
  store ptr %57, ptr %58, align 8
  store ptr %.019, ptr %57, align 8
  store ptr %.019, ptr %56, align 8
  %59 = load ptr, ptr %51, align 8
  %60 = getelementptr inbounds nuw i8, ptr %59, i64 176
  %61 = tail call i32 @uv_async_send(ptr noundef nonnull %60) #9
  %62 = load ptr, ptr %51, align 8
  %63 = getelementptr inbounds nuw i8, ptr %62, i64 136
  tail call void @uv_mutex_unlock(ptr noundef nonnull %63) #9
  tail call void @uv_mutex_lock(ptr noundef nonnull @mutex) #9
  br i1 %5, label %64, label %.backedge.backedge

64:                                               ; preds = %48
  %65 = load i32, ptr @slow_io_work_running, align 4
  %66 = add i32 %65, -1
  store i32 %66, ptr @slow_io_work_running, align 4
  br label %.backedge.backedge
}